; Function Attrs: mustprogress uwtable
define void @_ZN5boost4urls3urlC2ENS_4core17basic_string_viewIcEE(ptr noundef nonnull align 8 dereferenceable(216) %0, ptr %1, i64 %2) unnamed_addr #3 align 2 personality ptr @__gxx_personality_v0 {
  %4 = alloca %"class.boost::urls::url_view", align 8
  %5 = alloca %"class.boost::system::result", align 8
  %6 = alloca %"struct.boost::source_location", align 8
  call void @llvm.lifetime.start.p0(i64 192, ptr nonnull %4) #22
  call void @llvm.lifetime.start.p0(i64 200, ptr nonnull %5) #22
  call void @_ZN5boost4urls19parse_uri_referenceENS_4core17basic_string_viewIcEE(ptr dead_on_unwind nonnull writable sret(%"class.boost::system::result") align 8 %5, ptr %1, i64 %2)
  call void @llvm.lifetime.start.p0(i64 24, ptr nonnull %6) #22
  store ptr @.str, ptr %6, align 8, !tbaa !17
  %7 = getelementptr inbounds nuw i8, ptr %6, i64 8
  store ptr @.str.1, ptr %7, align 8, !tbaa !20
  %8 = getelementptr inbounds nuw i8, ptr %6, i64 16
  store i32 40, ptr %8, align 8, !tbaa !21
  %9 = getelementptr inbounds nuw i8, ptr %6, i64 20
  store i32 17, ptr %9, align 4, !tbaa !22
  %10 = getelementptr inbounds nuw i8, ptr %5, i64 192
  %11 = load i32, ptr %10, align 8, !tbaa !23, !noalias !25
  %12 = icmp eq i32 %11, 1
  br i1 %12, label %_ZNO5boost6system6resultINS_4urls8url_viewENS0_10error_codeEE5valueIS3_EENSt9enable_ifIXsr3std21is_move_constructibleIT_EE5valueES3_E4typeERKNS_15source_locationE.exit, label %13

13:                                               ; preds = %3
  call void @_ZN5boost6system26throw_exception_from_errorERKNS0_10error_codeERKNS_15source_locationE(ptr noundef nonnull align 8 dereferenceable(200) %5, ptr noundef nonnull align 8 dereferenceable(24) %6) #23, !noalias !25
  unreachable

_ZNO5boost6system6resultINS_4urls8url_viewENS0_10error_codeEE5valueIS3_EENSt9enable_ifIXsr3std21is_move_constructibleIT_EE5valueES3_E4typeERKNS_15source_locationE.exit: ; preds = %3
  call void @_ZN5boost4urls8url_viewC2ERKNS0_13url_view_baseE(ptr noundef nonnull align 8 dereferenceable(192) %4, ptr noundef nonnull align 8 dereferenceable(200) %5) #22
  %14 = getelementptr inbounds i8, ptr %0, i64 8
  call void @_ZN5boost4urls13url_view_baseC2Ev(ptr noundef nonnull align 8 dereferenceable(192) %14) #22
  %15 = getelementptr inbounds nuw i8, ptr %0, i64 200
  call void @llvm.memset.p0.i64(ptr noundef nonnull align 8 dereferenceable(16) %15, i8 0, i64 16, i1 false)
  store ptr getelementptr inbounds inrange(-16, 40) (i8, ptr @_ZTVN5boost4urls3urlE, i64 16), ptr %0, align 8, !tbaa !3
  call void @_ZN5boost4urls8url_base4copyERKNS0_13url_view_baseE(ptr noundef nonnull align 8 dereferenceable(216) %0, ptr noundef nonnull align 8 dereferenceable(192) %4)
  call void @llvm.lifetime.end.p0(i64 24, ptr nonnull %6) #22
  call void @llvm.lifetime.end.p0(i64 200, ptr nonnull %5) #22
  call void @llvm.lifetime.end.p0(i64 192, ptr nonnull %4) #22
  ret void
}